; Function Attrs: null_pointer_is_valid sspstrong uwtable
define internal void @epan_plugin_register_all_tap_listeners(ptr noundef readonly captures(none) %0, ptr readnone captures(none) %1) #6 {
  %3 = getelementptr inbounds nuw i8, ptr %0, i64 56
  %4 = load ptr, ptr %3, align 8
  %.not = icmp eq ptr %4, null
  br i1 %.not, label %6, label %5

5:                                                ; preds = %2
  tail call void %4()
  br label %6

6:                                                ; preds = %5, %2
  ret void
}